target datalayout = "e-m:e-p270:32:32-p271:32:32-p272:64:64-i64:64-i128:128-f80:128-n8:16:32:64-S128"
target triple = "x86_64-pc-linux-gnu"

%struct.StringInfoData = type { ptr, i32, i32, i32 }

@.str.1 = private unnamed_addr constant [7 x i8] c"auth.c\00", align 1
@.str.30 = private unnamed_addr constant [48 x i8] c"expected password response, got message type %d\00", align 1
@__func__.recv_password_packet = private unnamed_addr constant [21 x i8] c"recv_password_packet\00", align 1
@.str.31 = private unnamed_addr constant [29 x i8] c"invalid password packet size\00", align 1
@.str.32 = private unnamed_addr constant [34 x i8] c"empty password returned by client\00", align 1
@.str.33 = private unnamed_addr constant [25 x i8] c"received password packet\00", align 1

; Function Attrs: nounwind uwtable
define internal ptr @recv_password_packet(ptr noundef %0) #0 {
  %2 = alloca ptr, align 8
  %3 = alloca ptr, align 8
  %4 = alloca %struct.StringInfoData, align 8
  %5 = alloca i32, align 4
  %6 = alloca i32, align 4
  store ptr %0, ptr %3, align 8
  call void @llvm.lifetime.start.p0(i64 24, ptr %4) #14
  call void @llvm.lifetime.start.p0(i64 4, ptr %5) #14
  call void @pq_startmsgread()
  %7 = call i32 @pq_getbyte()
  store i32 %7, ptr %5, align 4
  %8 = load i32, ptr %5, align 4
  %9 = icmp ne i32 %8, 112
  br i1 %9, label %10, label %27

10:                                               ; preds = %1
  %11 = load i32, ptr %5, align 4
  %12 = icmp ne i32 %11, -1
  br i1 %12, label %13, label %26

13:                                               ; preds = %10
  br label %14

14:                                               ; preds = %13
  br i1 true, label %15, label %17

15:                                               ; preds = %14
  %16 = call zeroext i1 @errstart_cold(i32 noundef 21, ptr noundef null) #15
  br i1 %16, label %19, label %23

17:                                               ; preds = %14
  %18 = call zeroext i1 @errstart(i32 noundef 21, ptr noundef null)
  br i1 %18, label %19, label %23

19:                                               ; preds = %17, %15
  %20 = call i32 @errcode(i32 noundef 16908800)
  %21 = load i32, ptr %5, align 4
  %22 = call i32 (ptr, ...) @errmsg(ptr noundef @.str.30, i32 noundef %21)
  call void @errfinish(ptr noundef @.str.1, i32 noundef 710, ptr noundef @__func__.recv_password_packet)
  br label %23

23:                                               ; preds = %19, %17, %15
  unreachable

24:                                               ; No predecessors!
  br label %25

25:                                               ; preds = %24
  br label %26

26:                                               ; preds = %25, %10
  store ptr null, ptr %2, align 8
  store i32 1, ptr %6, align 4
  br label %83

27:                                               ; preds = %1
  call void @initStringInfo(ptr noundef %4)
  %28 = call i32 @pq_getmessage(ptr noundef %4, i32 noundef 65535)
  %29 = icmp ne i32 %28, 0
  br i1 %29, label %30, label %33

30:                                               ; preds = %27
  %31 = getelementptr inbounds nuw %struct.StringInfoData, ptr %4, i32 0, i32 0
  %32 = load ptr, ptr %31, align 8
  call void @pfree(ptr noundef %32)
  store ptr null, ptr %2, align 8
  store i32 1, ptr %6, align 4
  br label %83

33:                                               ; preds = %27
  %34 = getelementptr inbounds nuw %struct.StringInfoData, ptr %4, i32 0, i32 0
  %35 = load ptr, ptr %34, align 8
  %36 = call i64 @strlen(ptr noundef %35) #17
  %37 = add i64 %36, 1
  %38 = getelementptr inbounds nuw %struct.StringInfoData, ptr %4, i32 0, i32 1
  %39 = load i32, ptr %38, align 8
  %40 = sext i32 %39 to i64
  %41 = icmp ne i64 %37, %40
  br i1 %41, label %42, label %54

42:                                               ; preds = %33
  br label %43

43:                                               ; preds = %42
  br i1 true, label %44, label %46

44:                                               ; preds = %43
  %45 = call zeroext i1 @errstart_cold(i32 noundef 21, ptr noundef null) #15
  br i1 %45, label %48, label %51

46:                                               ; preds = %43
  %47 = call zeroext i1 @errstart(i32 noundef 21, ptr noundef null)
  br i1 %47, label %48, label %51

48:                                               ; preds = %46, %44
  %49 = call i32 @errcode(i32 noundef 16908800)
  %50 = call i32 (ptr, ...) @errmsg(ptr noundef @.str.31)
  call void @errfinish(ptr noundef @.str.1, i32 noundef 730, ptr noundef @__func__.recv_password_packet)
  br label %51

51:                                               ; preds = %48, %46, %44
  unreachable

52:                                               ; No predecessors!
  br label %53

53:                                               ; preds = %52
  br label %54

54:                                               ; preds = %53, %33
  %55 = getelementptr inbounds nuw %struct.StringInfoData, ptr %4, i32 0, i32 1
  %56 = load i32, ptr %55, align 8
  %57 = icmp eq i32 %56, 1
  br i1 %57, label %58, label %70

58:                                               ; preds = %54
  br label %59

59:                                               ; preds = %58
  br i1 true, label %60, label %62

60:                                               ; preds = %59
  %61 = call zeroext i1 @errstart_cold(i32 noundef 21, ptr noundef null) #15
  br i1 %61, label %64, label %67

62:                                               ; preds = %59
  %63 = call zeroext i1 @errstart(i32 noundef 21, ptr noundef null)
  br i1 %63, label %64, label %67

64:                                               ; preds = %62, %60
  %65 = call i32 @errcode(i32 noundef 16908802)
  %66 = call i32 (ptr, ...) @errmsg(ptr noundef @.str.32)
  call void @errfinish(ptr noundef @.str.1, i32 noundef 748, ptr noundef @__func__.recv_password_packet)
  br label %67

67:                                               ; preds = %64, %62, %60
  unreachable

68:                                               ; No predecessors!
  br label %69

69:                                               ; preds = %68
  br label %70

70:                                               ; preds = %69, %54
  br label %71

71:                                               ; preds = %70
  br i1 false, label %72, label %74

72:                                               ; preds = %71
  %73 = call zeroext i1 @errstart_cold(i32 noundef 10, ptr noundef null) #15
  br i1 %73, label %76, label %78

74:                                               ; preds = %71
  %75 = call zeroext i1 @errstart(i32 noundef 10, ptr noundef null)
  br i1 %75, label %76, label %78

76:                                               ; preds = %74, %72
  %77 = call i32 (ptr, ...) @errmsg_internal(ptr noundef @.str.33)
  call void @errfinish(ptr noundef @.str.1, i32 noundef 751, ptr noundef @__func__.recv_password_packet)
  br label %78

78:                                               ; preds = %76, %74, %72
  br label %79

79:                                               ; preds = %78
  br label %80

80:                                               ; preds = %79
  %81 = getelementptr inbounds nuw %struct.StringInfoData, ptr %4, i32 0, i32 0
  %82 = load ptr, ptr %81, align 8
  store ptr %82, ptr %2, align 8
  store i32 1, ptr %6, align 4
  br label %83

83:                                               ; preds = %80, %30, %26
  call void @llvm.lifetime.end.p0(i64 4, ptr %5) #14
  call void @llvm.lifetime.end.p0(i64 24, ptr %4) #14
  %84 = load ptr, ptr %2, align 8
  ret ptr %84
}