; Function Attrs: nounwind uwtable
define internal fastcc ptr @recv_password_packet() unnamed_addr #0 {
  %1 = alloca %struct.StringInfoData, align 8
  call void @llvm.lifetime.start.p0(i64 24, ptr nonnull %1) #16
  tail call void @pq_startmsgread() #16
  %2 = tail call i32 @pq_getbyte() #16
  switch i32 %2, label %3 [
    i32 112, label %7
    i32 -1, label %33
  ]

3:                                                ; preds = %0
  %4 = tail call zeroext i1 @errstart_cold(i32 noundef 21, ptr noundef null) #17
  tail call void @llvm.assume(i1 %4)
  %5 = tail call i32 @errcode(i32 noundef 16908800) #16
  %6 = tail call i32 (ptr, ...) @errmsg(ptr noundef nonnull @.str.30, i32 noundef %2) #16
  tail call void @errfinish(ptr noundef nonnull @.str.1, i32 noundef 710, ptr noundef nonnull @__func__.recv_password_packet) #16
  unreachable

7:                                                ; preds = %0
  call void @initStringInfo(ptr noundef nonnull %1) #16
  %8 = call i32 @pq_getmessage(ptr noundef nonnull %1, i32 noundef 65535) #16
  %.not4 = icmp eq i32 %8, 0
  %9 = load ptr, ptr %1, align 8
  br i1 %.not4, label %11, label %10

10:                                               ; preds = %7
  call void @pfree(ptr noundef %9) #16
  br label %33

11:                                               ; preds = %7
  %12 = call i64 @strlen(ptr noundef nonnull dereferenceable(1) %9) #19
  %13 = add i64 %12, 1
  %14 = getelementptr inbounds nuw i8, ptr %1, i64 8
  %15 = load i32, ptr %14, align 8
  %16 = sext i32 %15 to i64
  %.not5 = icmp eq i64 %13, %16
  br i1 %.not5, label %21, label %17

17:                                               ; preds = %11
  %18 = call zeroext i1 @errstart_cold(i32 noundef 21, ptr noundef null) #17
  call void @llvm.assume(i1 %18)
  %19 = call i32 @errcode(i32 noundef 16908800) #16
  %20 = call i32 (ptr, ...) @errmsg(ptr noundef nonnull @.str.31) #16
  call void @errfinish(ptr noundef nonnull @.str.1, i32 noundef 730, ptr noundef nonnull @__func__.recv_password_packet) #16
  unreachable

21:                                               ; preds = %11
  %22 = icmp eq i32 %15, 1
  br i1 %22, label %23, label %27

23:                                               ; preds = %21
  %24 = call zeroext i1 @errstart_cold(i32 noundef 21, ptr noundef null) #17
  call void @llvm.assume(i1 %24)
  %25 = call i32 @errcode(i32 noundef 16908802) #16
  %26 = call i32 (ptr, ...) @errmsg(ptr noundef nonnull @.str.32) #16
  call void @errfinish(ptr noundef nonnull @.str.1, i32 noundef 748, ptr noundef nonnull @__func__.recv_password_packet) #16
  unreachable

27:                                               ; preds = %21
  %28 = call zeroext i1 @errstart(i32 noundef 10, ptr noundef null) #16
  br i1 %28, label %29, label %31

29:                                               ; preds = %27
  %30 = call i32 (ptr, ...) @errmsg_internal(ptr noundef nonnull @.str.33) #16
  call void @errfinish(ptr noundef nonnull @.str.1, i32 noundef 751, ptr noundef nonnull @__func__.recv_password_packet) #16
  br label %31

31:                                               ; preds = %29, %27
  %32 = load ptr, ptr %1, align 8
  br label %33

33:                                               ; preds = %0, %31, %10
  %.0 = phi ptr [ null, %10 ], [ %32, %31 ], [ null, %0 ]
  call void @llvm.lifetime.end.p0(i64 24, ptr nonnull %1) #16
  ret ptr %.0
}